target datalayout = "e-m:e-p270:32:32-p271:32:32-p272:64:64-i64:64-i128:128-f80:128-n8:16:32:64-S128"
target triple = "x86_64-pc-linux-gnu"

%struct.GlobalContext = type { %struct.HTable, ptr, ptr, ptr, ptr, ptr, ptr, ptr, ptr, i8, i32, i32, i32, ptr, ptr, %struct.HTable, %struct.HTable, %struct.Module_, %struct.DeclTable, %struct.DeclTable, %struct.Path_, ptr, ptr, ptr, ptr, ptr, ptr, ptr, [65536 x ptr], ptr, ptr, ptr }
%struct.HTable = type { i32, ptr }
%struct.Module_ = type { ptr, ptr, ptr, i16, i32, ptr, %struct.HTable, ptr, ptr, ptr, ptr, ptr, ptr, ptr, ptr, ptr }
%struct.DeclTable = type { i32, i32, i32, ptr }
%struct.Path_ = type { %union.SourceSpan, ptr, i32 }
%union.SourceSpan = type { i64 }
%struct.BuildTarget = type { i32, ptr, ptr, ptr, ptr, ptr, ptr, ptr, ptr, ptr, ptr, ptr, ptr, ptr, ptr, ptr, ptr, ptr, ptr, i8, i8, i8, i8, i8, i8, i8, i8, i8, i8, i8, i8, i8, i8, i8, i8, i8, i8, i8, i8, i32, i32, i32, i32, i32, i32, i32, i32, i32, i32, i32, i32, i32, i32, i32, i32, i32, i32, ptr, ptr, ptr, ptr, ptr, ptr, ptr, ptr, ptr, ptr, %struct.anon.85, %struct.anon.86, %struct.anon.87, %struct.anon.88 }
%struct.anon.85 = type { i16, i32, i32, i32 }
%struct.anon.86 = type { ptr, ptr, ptr, ptr }
%struct.anon.87 = type { ptr, ptr, i32, i8 }
%struct.anon.88 = type { ptr, ptr }

@global_context = dso_local global %struct.GlobalContext zeroinitializer, align 8
@active_target = dso_local global %struct.BuildTarget zeroinitializer, align 8

; Function Attrs: nounwind uwtable
define dso_local ptr @build_base_name() #0 {
  %1 = alloca ptr, align 8
  %2 = alloca ptr, align 8
  %3 = alloca i64, align 8
  %4 = alloca i64, align 8
  %5 = load ptr, ptr getelementptr inbounds (%struct.BuildTarget, ptr @active_target, i32 0, i32 2), align 8
  %6 = icmp ne ptr %5, null
  br i1 %6, label %7, label %9

7:                                                ; preds = %0
  %8 = load ptr, ptr getelementptr inbounds (%struct.BuildTarget, ptr @active_target, i32 0, i32 2), align 8
  store ptr %8, ptr %1, align 8
  br label %44

9:                                                ; preds = %0
  %10 = load ptr, ptr getelementptr inbounds (%struct.GlobalContext, ptr @global_context, i32 0, i32 2), align 8
  %11 = getelementptr inbounds ptr, ptr %10, i64 0
  %12 = load ptr, ptr %11, align 8
  %13 = getelementptr inbounds %struct.Module_, ptr %12, i32 0, i32 0
  %14 = load ptr, ptr %13, align 8
  store ptr %14, ptr %2, align 8
  store i64 0, ptr %3, align 8
  %15 = load ptr, ptr %2, align 8
  %16 = getelementptr inbounds %struct.Path_, ptr %15, i32 0, i32 2
  %17 = load i32, ptr %16, align 8
  %18 = zext i32 %17 to i64
  store i64 %18, ptr %4, align 8
  br label %19

19:                                               ; preds = %35, %9
  %20 = load i64, ptr %4, align 8
  %21 = icmp ugt i64 %20, 0
  br i1 %21, label %22, label %38

22:                                               ; preds = %19
  %23 = load ptr, ptr %2, align 8
  %24 = getelementptr inbounds %struct.Path_, ptr %23, i32 0, i32 1
  %25 = load ptr, ptr %24, align 8
  %26 = load i64, ptr %4, align 8
  %27 = sub i64 %26, 1
  %28 = getelementptr inbounds i8, ptr %25, i64 %27
  %29 = load i8, ptr %28, align 1
  %30 = sext i8 %29 to i32
  %31 = icmp eq i32 %30, 58
  br i1 %31, label %32, label %34

32:                                               ; preds = %22
  %33 = load i64, ptr %4, align 8
  store i64 %33, ptr %3, align 8
  br label %38

34:                                               ; preds = %22
  br label %35

35:                                               ; preds = %34
  %36 = load i64, ptr %4, align 8
  %37 = add i64 %36, -1
  store i64 %37, ptr %4, align 8
  br label %19, !llvm.loop !7

38:                                               ; preds = %32, %19
  %39 = load ptr, ptr %2, align 8
  %40 = getelementptr inbounds %struct.Path_, ptr %39, i32 0, i32 1
  %41 = load ptr, ptr %40, align 8
  %42 = load i64, ptr %3, align 8
  %43 = getelementptr inbounds i8, ptr %41, i64 %42
  store ptr %43, ptr %1, align 8
  br label %44

44:                                               ; preds = %38, %7
  %45 = load ptr, ptr %1, align 8
  ret ptr %45
}