; Function Attrs: nofree norecurse nosync nounwind memory(read, inaccessiblemem: none) uwtable
define dso_local ptr @build_base_name() local_unnamed_addr #7 {
  %1 = load ptr, ptr getelementptr inbounds (%struct.BuildTarget, ptr @active_target, i64 0, i32 2), align 8
  %.not = icmp eq ptr %1, null
  br i1 %.not, label %2, label %15

2:                                                ; preds = %0
  %3 = load ptr, ptr getelementptr inbounds (%struct.GlobalContext, ptr @global_context, i64 0, i32 2), align 8
  %4 = load ptr, ptr %3, align 8
  %5 = load ptr, ptr %4, align 8
  %6 = getelementptr inbounds i8, ptr %5, i64 16
  %7 = load i32, ptr %6, align 8
  %.not1112 = icmp eq i32 %7, 0
  %.phi.trans.insert = getelementptr inbounds i8, ptr %5, i64 8
  %.pre = load ptr, ptr %.phi.trans.insert, align 8
  br i1 %.not1112, label %._crit_edge, label %.lr.ph

.lr.ph:                                           ; preds = %2
  %8 = zext i32 %7 to i64
  %invariant.gep = getelementptr i8, ptr %.pre, i64 -1
  br label %9

9:                                                ; preds = %.lr.ph, %12
  %.013 = phi i64 [ %8, %.lr.ph ], [ %13, %12 ]
  %gep = getelementptr i8, ptr %invariant.gep, i64 %.013
  %10 = load i8, ptr %gep, align 1
  %11 = icmp eq i8 %10, 58
  br i1 %11, label %._crit_edge, label %12

12:                                               ; preds = %9
  %13 = add nsw i64 %.013, -1
  %.not11 = icmp eq i64 %13, 0
  br i1 %.not11, label %._crit_edge, label %9, !llvm.loop !7

._crit_edge:                                      ; preds = %12, %9, %2
  %.0.lcssa = phi i64 [ 0, %2 ], [ %.013, %9 ], [ 0, %12 ]
  %14 = getelementptr inbounds i8, ptr %.pre, i64 %.0.lcssa
  br label %15

15:                                               ; preds = %0, %._crit_edge
  %.09 = phi ptr [ %14, %._crit_edge ], [ %1, %0 ]
  ret ptr %.09
}